(dp0
S'PA'
p1
(lp2
F0.7051260169539739
aF0.6739489105080503
aF0.692552767821585
aF0.6918700574614554
aF5.6892530010809584e-05
aF0.6923251977015418
aF0.7072879330943848
aF5.6892530010809584e-05
aF5.6892530010809584e-05
aF0.6984695909427092
aF0.6912442396313364
aF0.6986971610627525
aF5.6892530010809584e-05
aF0.6951698242020823
aF0.7041019514137794
aF0.6944871138419525
aF0.6885133981908176
aF0.7108721624850657
aF0.6972748478124822
aF0.7060931899641577
aF5.6892530010809584e-05
aF0.7005177220230984
aF0.7060362974341469
aF0.6891392160209364
aF0.6812880468794448
aF5.6892530010809584e-05
aF0.7225351311372816
aF0.6938612960118337
aF0.7055242646640496
aF5.6892530010809584e-05
aF0.7068327928542982
aF0.6918700574614554
aF0.730215622688741
aF0.00017067759003242875
aF0.6898219263810662
aF0.6905615292712067
aF0.702110712863401
aF5.6892530010809584e-05
aF5.6892530010809584e-05
aF5.6892530010809584e-05
aF5.6892530010809584e-05
aF0.7006883996131308
aF0.7047846617739091
aF0.6816862945895203
aF0.7024520680434659
aF0.6950560391420606
aF5.6892530010809584e-05
aF0.713773681515617
aF0.6930079080616715
aF0.6977868805825795
aF5.6892530010809584e-05
aF0.6964783523923309
aF0.707799965864482
aF0.00017067759003242875
aF5.6892530010809584e-05
aF0.7081413210445469
aF0.6891392160209364
aF0.6886271832508392
aF0.6897650338510554
aF0.6884565056608067
aF0.7035330261136713
aF5.6892530010809584e-05
aF5.6892530010809584e-05
aF0.7046139841838767
aF0.6962507822722876
aF0.6906753143312283
aF0.7103032371849576
aF0.6880013654207202
aF0.00017067759003242875
aF0.7023951755134551
aF0.6895374637310121
aF0.7093360641747739
aF0.6837344256699095
aF0.7064914376742334
aF0.6960801046822552
aF0.6979006656426011
aF0.7244125846276384
aF5.6892530010809584e-05
aF0.7174148034363088
aF0.7039881663537577
aF0.6985833760027308
aF0.00017067759003242875
aF0.7029072082835524
aF0.7138305740456278
aF5.6892530010809584e-05
aF0.7086533538146441
aF0.7159924901860386
aF0.7062069750241793
aF0.6953973943221256
aF0.6881151504807419
aF0.706320760084201
aF0.6883427206007852
aF5.6892530010809584e-05
aF0.6868635148205041
aF0.700915969733174
aF0.6944302213119418
aF0.7055811571940604
aF0.7006883996131308
aF5.6892530010809584e-05
aF0.6932923707117256
asS'IMDB'
p3
(lp4
F5.6892530010809584e-05
aF0.47931956534107073
aF0.4607726005575468
aF0.46680320873869263
aF0.48222108437162203
aF0.00011378506002161917
aF0.4598623200773738
aF0.47539398077032485
aF0.4630483017579792
aF0.4834727200318598
aF5.6892530010809584e-05
aF5.6892530010809584e-05
aF0.4809694487113842
aF5.6892530010809584e-05
aF0.47766968197075726
aF0.466689423678671
aF0.00011378506002161917
aF0.469078909939125
aF0.4834727200318598
aF5.6892530010809584e-05
aF5.6892530010809584e-05
aF0.4651533253683791
aF0.4851226034021733
aF0.0003413551800648575
aF0.4555384877965523
aF0.47931956534107073
aF5.6892530010809584e-05
aF0.00011378506002161917
aF5.6892530010809584e-05
aF0.00011378506002161917
aF0.4889344029128975
aF0.46230869886783865
aF0.45531091767650905
aF0.4711839335495249
aF0.45468509984639016
aF5.6892530010809584e-05
aF0.47169596631962224
aF0.4697616202992547
aF0.46714456391875747
aF0.4721511065597087
aF5.6892530010809584e-05
aF0.46481197018831427
aF0.00011378506002161917
aF0.4612846333276441
aF0.4696478352392331
aF0.4505319451556011
aF0.47243556920976276
aF0.46526711042840074
aF0.4725493542697844
aF5.6892530010809584e-05
aF5.6892530010809584e-05
aF5.6892530010809584e-05
aF0.4757353359503897
aF0.4767025089605735
aF5.6892530010809584e-05
aF5.6892530010809584e-05
aF5.6892530010809584e-05
aF0.46839619957899525
aF0.4792057802810491
aF0.47243556920976276
aF0.4711839335495249
aF5.6892530010809584e-05
aF0.47886442510098426
aF5.6892530010809584e-05
aF0.4478011037150822
aF0.48648802412243275
aF5.6892530010809584e-05
aF5.6892530010809584e-05
aF0.0003413551800648575
aF5.6892530010809584e-05
aF5.6892530010809584e-05
aF5.6892530010809584e-05
aF5.6892530010809584e-05
aF0.45923650224725493
aF0.47931956534107073
aF0.00011378506002161917
aF5.6892530010809584e-05
aF5.6892530010809584e-05
aF0.4934858053137623
aF0.46367411958809807
aF0.46327587187802244
aF5.6892530010809584e-05
aF5.6892530010809584e-05
aF5.6892530010809584e-05
aF0.4807987711213518
aF5.6892530010809584e-05
aF0.46173977356773055
aF0.46060192296751434
aF0.4677134892188656
aF5.6892530010809584e-05
aF0.4673152415087899
aF0.4743130227001195
aF0.4696478352392331
aF0.46134152585765487
aF5.6892530010809584e-05
aF0.4620811287477954
aF0.00011378506002161917
aF0.46759970415884394
aF0.008647664561643056
aF0.47243556920976276
asS'ER'
p5
(lp6
F0.7462593161517893
aF0.7399442453205894
aF0.7414234511008705
aF0.7349377026796382
aF5.6892530010809584e-05
aF0.7486488024122433
aF0.7439836149513569
aF0.7356204130397679
aF5.6892530010809584e-05
aF0.7176423735563521
aF5.6892530010809584e-05
aF0.7394322125504921
aF0.7385219320703191
aF0.7327188940092166
aF0.7456334983216704
aF0.7238436593275303
aF0.7232747340274222
aF0.7301587301587301
aF0.00011378506002161917
aF0.7265176082380383
aF0.743073334471184
aF0.7381236843602434
aF0.7301018376287194
aF5.6892530010809584e-05
aF0.7307845479888491
aF0.7407407407407407
aF0.7258348978779087
aF0.7312965807589463
aF0.751436536382773
aF0.7433009045912272
aF0.7277692438982761
aF0.7386926096603516
aF0.7360755532798543
aF0.7409114183307731
aF0.00017067759003242875
aF0.7385219320703191
aF0.7427319792911191
aF0.7378961142402003
aF0.7287364169084599
aF0.7451214655515731
aF0.7427888718211298
aF0.7291915571485464
aF5.6892530010809584e-05
aF0.7454059282016271
aF0.7298173749786653
aF0.7297035899186437
aF0.7467144563918757
aF0.7341412072594868
aF0.7301587301587301
aF0.7368720487000057
aF0.7349377026796382
aF0.7360755532798543
aF0.7364169084599193
aF0.749047050122319
aF0.7468282414518974
aF0.7409114183307731
aF0.7392046424304489
aF5.6892530010809584e-05
aF0.7315810434090004
aF5.6892530010809584e-05
aF0.7268589634181032
aF0.7414803436308812
aF5.6892530010809584e-05
aF5.6892530010809584e-05
aF0.7295329123286113
aF0.7237867667975195
aF0.7380667918302327
aF0.7293622347385789
aF0.7362462308698868
aF0.7291915571485464
aF0.7410252033907948
aF0.7411958809808272
aF0.00011378506002161917
aF0.7334016043693463
aF0.7367582636399841
aF0.7483643397621892
aF0.7397166752005462
aF5.6892530010809584e-05
aF0.743073334471184
aF0.7261193605279627
aF0.727200318598168
aF0.7285088467884167
aF0.7311827956989247
aF0.7368151561699949
aF0.7491608351823406
aF0.7312396882289356
aF0.7343118848495193
aF0.7336291744893896
aF0.7372702964100813
aF0.7513227513227513
aF0.7431302270011948
aF0.7265745007680492
aF0.7446663253114866
aF0.7335722819593787
aF5.6892530010809584e-05
aF0.7374409740001138
aF0.7447232178414974
aF0.7409114183307731
aF0.7298173749786653
aF0.7464868862718325
as.