(dp0
S'PA'
p1
(lp2
F0.7074586106844172
aF0.6950560391420606
aF0.6721852420777152
aF0.6944871138419525
aF0.6730955225578882
aF0.6861808044603743
aF0.6828241451897366
aF0.7133185412755305
aF0.6971041702224497
aF0.6965352449223416
aF0.7180406212664278
aF0.6828810377197474
aF0.7125220458553791
aF0.6961938897422768
aF0.7111566251351198
aF0.7106445923650224
aF0.6853274165102122
aF0.7087671388746658
aF0.7014848950332822
aF0.6864652671104284
aF0.6956818569721795
aF0.7001763668430335
aF0.6765090743585367
aF0.6944871138419525
aF0.6857825567502986
aF0.7031916709336065
aF0.7051829094839848
aF0.6923251977015418
aF0.7060931899641577
aF0.6913011321613473
aF0.662968652215964
aF0.7002332593730444
aF0.7089378164646982
aF0.7142288217557035
aF0.7071741480343631
aF0.6929510155316607
aF0.7107014848950333
aF0.7085395687546225
aF0.6837344256699095
aF0.6853843090402231
aF0.7004608294930875
aF0.6953405017921147
aF0.7004608294930875
aF0.6976162029925471
aF0.6922683051715309
aF0.6996643340729363
aF0.7019969278033794
aF0.6942026511918985
aF0.6936906184218012
aF0.6998350116629687
aF0.6884565056608067
aF0.6931216931216931
aF0.6998350116629687
aF0.7017124651533254
aF0.6968766001024066
aF0.6939750810718552
aF0.7029641008135632
aF0.7017693576833361
aF0.6926096603515959
aF0.6957956420322011
aF0.7025658531034875
aF0.6848722762701257
aF0.6977299880525687
aF0.6831655003698014
aF0.7130340786254765
aF0.7078568583944927
aF0.6890254309609148
aF0.6969903851624282
aF0.7083688911645901
aF0.6983558058826876
aF0.691358024691358
aF0.6975024179325254
aF0.6911873471013256
aF0.676452181828526
aF0.6966490299823633
aF0.6817431871195312
aF0.7154235648859305
aF0.7038743812937361
aF0.7113273027251522
aF0.7019400352733686
aF0.6912442396313364
aF0.7165045229561359
aF0.6812311543494339
aF0.686294589520396
aF0.6935199408317688
aF0.6899357114410878
aF0.6989816237128065
aF0.6914718097513797
aF0.6874324401206121
aF0.6933492632417364
aF0.7130909711554873
aF0.7023382829834443
aF0.692552767821585
aF0.6947146839619958
aF0.6826534675997041
aF0.7089378164646982
aF0.7131478636854981
aF0.6945440063719633
aF0.687204870000569
aF0.6880013654207202
asS'IMDB'
p3
(lp4
F0.4688513398190818
aF0.4823348694316436
aF0.46521021789838995
aF0.4577004039369631
aF0.48722762701257327
aF0.46833930704898447
aF0.4738009899300222
aF0.4743699152301303
aF0.4598623200773738
aF0.4442168743244012
aF0.45690390851681173
aF0.47755589691073563
aF0.46344654946805486
aF0.4850657108721625
aF0.4561643056266712
aF0.45548159526654153
aF0.4606588154975252
aF0.4656084656084656
aF0.48654491665244354
aF0.4613984183876657
aF0.47943335040109236
aF0.4727200318598168
aF0.49240484724355693
aF0.4772714342606816
aF0.4481424588951471
aF0.46759970415884394
aF0.4747112704101951
aF0.46401547476816296
aF0.46777038174887636
aF0.47368720487000054
aF0.4702167605393412
aF0.4719804289696763
aF0.46037435284747114
aF0.4770438641406383
aF0.4876258747226489
aF0.49439608579393524
aF0.48375718268191387
aF0.48261933208169766
aF0.42367867099049894
aF0.458326221767082
aF0.471752858849633
aF0.47499573306024917
aF0.447573533595039
aF0.4788075325709734
aF0.4674290265688115
aF0.4647550776583035
aF0.4625362689878819
aF0.4657222506684872
aF0.4722079990897195
aF0.4536041417761848
aF0.45861068441713604
aF0.47755589691073563
aF0.4698185128292655
aF0.4653808954884224
aF0.4585537918871252
aF0.4706150082494169
aF0.4513284405757524
aF0.46287762416794676
aF0.48296068726176256
aF0.4780679296808329
aF0.4834727200318598
aF0.48398475280195713
aF0.46287762416794676
aF0.4761335836604654
aF0.46486886271832506
aF0.465494680548444
aF0.4749388405302384
aF0.4743130227001195
aF0.4567901234567901
aF0.459520964897309
aF0.46816862945895205
aF0.4673721340388007
aF0.4727769243898276
aF0.48318825738180576
aF0.4770438641406383
aF0.4660636058485521
aF0.47249246173977355
aF0.45081640780565513
aF0.4447857996245093
aF0.4616259885077089
aF0.4917221368834272
aF0.46100017067759
aF0.46060192296751434
aF0.45269386129601186
aF0.45798486658701715
aF0.4807987711213518
aF0.47505262559026
aF0.4649826477783467
aF0.47186664390965466
aF0.49684246458440007
aF0.4512146555157308
aF0.46401547476816296
aF0.4608294930875576
aF0.4714115036695682
aF0.46822552198896283
aF0.46327587187802244
aF0.49792342265460543
aF0.47129771860954656
aF0.4608863856175684
aF0.45815554417704957
asS'ER'
p5
(lp6
F0.7286795243784491
aF0.7257780053478978
aF0.7311827956989247
aF0.731694828469022
aF0.7394322125504921
aF5.6892530010809584e-05
aF0.7456334983216704
aF0.7284519542584059
aF0.7444387551914433
aF0.7468851339819081
aF0.7305569778688058
aF0.7235023041474654
aF0.7235591966774763
aF0.7282243841383627
aF0.7335722819593787
aF0.7306707629288275
aF0.729931160038687
aF0.7235023041474654
aF0.7283950617283951
aF0.7512658587927405
aF0.7294191272685896
aF0.7556465836035728
aF0.7434146896512488
aF0.7350514877396598
aF0.7365306935199408
aF0.7394322125504921
aF0.7538829151732378
aF0.7392046424304489
aF5.6892530010809584e-05
aF0.7473971667520055
aF0.749331512772373
aF0.7372702964100813
aF0.7334016043693463
aF0.7370996188200489
aF0.7226489161973033
aF0.7198611822267736
aF0.00022757012004323833
aF0.7250952949877681
aF0.7401149229106219
aF0.7297604824486545
aF0.7286226318484383
aF0.7244125846276384
aF0.7415941286909029
aF0.7465437788018433
aF0.7327757865392274
aF0.7386357171303408
aF0.7323775388291517
aF0.7307845479888491
aF0.7369858337600274
aF0.7347670250896058
aF0.7443249701314217
aF0.7349377026796382
aF0.7444956477214542
aF0.7349945952096489
aF0.7242987995676168
aF0.735279057859703
aF0.7324344313591625
aF0.7373840814701029
aF0.7443818626614326
aF0.7320930761790977
aF0.7289070944984923
aF0.7321499687091085
aF0.7484212322922
aF0.7304431928087842
aF0.7279399214883086
aF0.7290208795585139
aF0.7332309267793139
aF0.7316379359390112
aF0.72452636968766
aF0.735563520509757
aF0.7472833816919838
aF0.7405700631507083
aF0.746031746031746
aF0.738863287250384
aF0.7361324458098651
aF0.7335153894293679
aF0.7215110655970871
aF0.7262900381179951
aF0.7195198270467088
aF0.7519485691528702
aF0.7450076804915514
aF0.737668544120157
aF0.7388063947203732
aF0.7469989190419298
aF0.7442680776014109
aF0.7494452978323946
aF0.7452352506115947
aF0.74068384821073
aF0.7328895715992491
aF0.7429595494111623
aF0.7329464641292598
aF0.7373271889400922
aF0.7261762530579735
aF0.7305000853387951
aF0.7431871195312055
aF0.735279057859703
aF0.7429595494111623
aF0.7488763725322866
aF0.7397166752005462
aF0.7343687773795301
as.